target datalayout = "e-m:e-p270:32:32-p271:32:32-p272:64:64-i64:64-i128:128-f80:128-n8:16:32:64-S128"
target triple = "x86_64-unknown-linux-gnu"

%struct.BlockDriverState = type { i32, i8, i8, i8, i8, i8, ptr, ptr, ptr, %struct.anon, i8, [4096 x i8], [4096 x i8], [4096 x i8], [16 x i8], ptr, [4096 x i8], %struct.BlockLimits, i32, i32, i32, i32, [32 x i8], %union.anon, %union.anon.0, %union.anon.1, i32, [16 x %struct.anon.2], ptr, %struct.anon.3, ptr, ptr, %struct.anon.4, ptr, ptr, i32, ptr, i64, i64, %struct.QemuMutex, %struct.anon.5, %struct.Stat64, i32, i32, i32, i32, i32, i32, %struct.QemuMutex, %struct.anon.6, %struct.CoQueue, i8, i32, i8, %struct.CoMutex, ptr, ptr }
%struct.anon = type { ptr }
%struct.BlockLimits = type { i32, i64, i32, i64, i32, i32, i32, i64, i32, i64, i64, i32, i8, i32, i32, i32, i32, i32, i32, i32 }
%union.anon = type { %struct.QTailQLink }
%struct.QTailQLink = type { ptr, ptr }
%union.anon.0 = type { %struct.QTailQLink }
%union.anon.1 = type { %struct.QTailQLink }
%struct.anon.2 = type { ptr }
%struct.anon.3 = type { ptr }
%struct.anon.4 = type { ptr }
%struct.anon.5 = type { ptr }
%struct.Stat64 = type { i64 }
%struct.QemuMutex = type { %union.pthread_mutex_t, i8 }
%union.pthread_mutex_t = type { %struct.__pthread_mutex_s }
%struct.__pthread_mutex_s = type { i32, i32, i32, i32, i32, i16, i16, %struct.__pthread_internal_list }
%struct.__pthread_internal_list = type { ptr, ptr }
%struct.anon.6 = type { ptr }
%struct.CoQueue = type { %struct.anon.7 }
%struct.anon.7 = type { ptr, ptr }
%struct.CoMutex = type { i32, ptr, %struct.anon.8, %struct.anon.8, i32, i32, ptr }
%struct.anon.8 = type { ptr }
%struct.BDRVStateCOR = type { ptr, i8 }

@.str = private unnamed_addr constant [22 x i8] c"qemu_in_main_thread()\00", align 1
@.str.1 = private unnamed_addr constant [29 x i8] c"../qemu/block/copy-on-read.c\00", align 1
@__PRETTY_FUNCTION__.cor_close = private unnamed_addr constant [35 x i8] c"void cor_close(BlockDriverState *)\00", align 1

; Function Attrs: nounwind sspstrong uwtable
define internal void @cor_close(ptr noundef %bs) #0 {
entry:
  %bs.addr = alloca ptr, align 8
  %s = alloca ptr, align 8
  store ptr %bs, ptr %bs.addr, align 8
  %0 = load ptr, ptr %bs.addr, align 8
  %opaque = getelementptr inbounds %struct.BlockDriverState, ptr %0, i32 0, i32 7
  %1 = load ptr, ptr %opaque, align 8
  store ptr %1, ptr %s, align 8
  br label %do.body

do.body:                                          ; preds = %entry
  %call = call zeroext i1 @qemu_in_main_thread()
  br i1 %call, label %if.then, label %if.else

if.then:                                          ; preds = %do.body
  br label %if.end

if.else:                                          ; preds = %do.body
  call void @__assert_fail(ptr noundef @.str, ptr noundef @.str.1, i32 noundef 238, ptr noundef @__PRETTY_FUNCTION__.cor_close) #3
  unreachable

if.end:                                           ; preds = %if.then
  br label %do.end

do.end:                                           ; preds = %if.end
  %2 = load ptr, ptr %s, align 8
  %chain_frozen = getelementptr inbounds %struct.BDRVStateCOR, ptr %2, i32 0, i32 1
  %3 = load i8, ptr %chain_frozen, align 8
  %tobool = trunc i8 %3 to i1
  br i1 %tobool, label %if.then1, label %if.end3

if.then1:                                         ; preds = %do.end
  call void @bdrv_graph_rdlock_main_loop()
  %4 = load ptr, ptr %s, align 8
  %chain_frozen2 = getelementptr inbounds %struct.BDRVStateCOR, ptr %4, i32 0, i32 1
  store i8 0, ptr %chain_frozen2, align 8
  %5 = load ptr, ptr %bs.addr, align 8
  %6 = load ptr, ptr %s, align 8
  %bottom_bs = getelementptr inbounds %struct.BDRVStateCOR, ptr %6, i32 0, i32 0
  %7 = load ptr, ptr %bottom_bs, align 8
  call void @bdrv_unfreeze_backing_chain(ptr noundef %5, ptr noundef %7)
  call void @bdrv_graph_rdunlock_main_loop()
  br label %if.end3

if.end3:                                          ; preds = %if.then1, %do.end
  %8 = load ptr, ptr %s, align 8
  %bottom_bs4 = getelementptr inbounds %struct.BDRVStateCOR, ptr %8, i32 0, i32 0
  %9 = load ptr, ptr %bottom_bs4, align 8
  call void @bdrv_unref(ptr noundef %9)
  ret void
}