; Function Attrs: nounwind sspstrong uwtable
define internal void @cor_close(ptr noundef %bs) #0 {
entry:
  %opaque = getelementptr inbounds nuw i8, ptr %bs, i64 24
  %0 = load ptr, ptr %opaque, align 8
  %call = tail call zeroext i1 @qemu_in_main_thread() #4
  br i1 %call, label %do.end, label %if.else

if.else:                                          ; preds = %entry
  tail call void @__assert_fail(ptr noundef nonnull @.str, ptr noundef nonnull @.str.1, i32 noundef 238, ptr noundef nonnull @__PRETTY_FUNCTION__.cor_close) #5
  unreachable

do.end:                                           ; preds = %entry
  %chain_frozen = getelementptr inbounds nuw i8, ptr %0, i64 8
  %1 = load i8, ptr %chain_frozen, align 8
  %tobool = trunc i8 %1 to i1
  br i1 %tobool, label %if.then1, label %if.end3

if.then1:                                         ; preds = %do.end
  tail call void @bdrv_graph_rdlock_main_loop() #4
  store i8 0, ptr %chain_frozen, align 8
  %2 = load ptr, ptr %0, align 8
  tail call void @bdrv_unfreeze_backing_chain(ptr noundef nonnull %bs, ptr noundef %2) #4
  tail call void @bdrv_graph_rdunlock_main_loop() #4
  br label %if.end3

if.end3:                                          ; preds = %if.then1, %do.end
  %3 = load ptr, ptr %0, align 8
  tail call void @bdrv_unref(ptr noundef %3) #4
  ret void
}